target datalayout = "e-m:e-p270:32:32-p271:32:32-p272:64:64-i64:64-i128:128-f80:128-n8:16:32:64-S128"
target triple = "x86_64-pc-linux-gnu"

%struct.JNINativeInterface_ = type { ptr, ptr, ptr, ptr, ptr, ptr, ptr, ptr, ptr, ptr, ptr, ptr, ptr, ptr, ptr, ptr, ptr, ptr, ptr, ptr, ptr, ptr, ptr, ptr, ptr, ptr, ptr, ptr, ptr, ptr, ptr, ptr, ptr, ptr, ptr, ptr, ptr, ptr, ptr, ptr, ptr, ptr, ptr, ptr, ptr, ptr, ptr, ptr, ptr, ptr, ptr, ptr, ptr, ptr, ptr, ptr, ptr, ptr, ptr, ptr, ptr, ptr, ptr, ptr, ptr, ptr, ptr, ptr, ptr, ptr, ptr, ptr, ptr, ptr, ptr, ptr, ptr, ptr, ptr, ptr, ptr, ptr, ptr, ptr, ptr, ptr, ptr, ptr, ptr, ptr, ptr, ptr, ptr, ptr, ptr, ptr, ptr, ptr, ptr, ptr, ptr, ptr, ptr, ptr, ptr, ptr, ptr, ptr, ptr, ptr, ptr, ptr, ptr, ptr, ptr, ptr, ptr, ptr, ptr, ptr, ptr, ptr, ptr, ptr, ptr, ptr, ptr, ptr, ptr, ptr, ptr, ptr, ptr, ptr, ptr, ptr, ptr, ptr, ptr, ptr, ptr, ptr, ptr, ptr, ptr, ptr, ptr, ptr, ptr, ptr, ptr, ptr, ptr, ptr, ptr, ptr, ptr, ptr, ptr, ptr, ptr, ptr, ptr, ptr, ptr, ptr, ptr, ptr, ptr, ptr, ptr, ptr, ptr, ptr, ptr, ptr, ptr, ptr, ptr, ptr, ptr, ptr, ptr, ptr, ptr, ptr, ptr, ptr, ptr, ptr, ptr, ptr, ptr, ptr, ptr, ptr, ptr, ptr, ptr, ptr, ptr, ptr, ptr, ptr, ptr, ptr, ptr, ptr, ptr, ptr, ptr, ptr, ptr, ptr, ptr, ptr, ptr, ptr, ptr, ptr, ptr, ptr, ptr, ptr, ptr, ptr, ptr, ptr, ptr, ptr, ptr, ptr, ptr, ptr, ptr }

@tkClass = external global ptr, align 8
@awtLockMID = external global ptr, align 8
@awtUnlockMID = external global ptr, align 8
@awt_display = external global ptr, align 8

; Function Attrs: nounwind uwtable
define void @Java_sun_awt_X11_XRobotPeer_keyPressImpl(ptr noundef %0, ptr noundef %1, i32 noundef %2) #0 {
  %4 = alloca ptr, align 8
  %5 = alloca ptr, align 8
  %6 = alloca i32, align 4
  %7 = alloca ptr, align 8
  store ptr %0, ptr %4, align 8
  store ptr %1, ptr %5, align 8
  store i32 %2, ptr %6, align 4
  br label %8

8:                                                ; preds = %3
  %9 = load ptr, ptr %4, align 8
  %10 = load ptr, ptr %9, align 8
  %11 = getelementptr inbounds %struct.JNINativeInterface_, ptr %10, i32 0, i32 228
  %12 = load ptr, ptr %11, align 8
  %13 = load ptr, ptr %4, align 8
  %14 = call zeroext i8 %12(ptr noundef %13)
  %15 = icmp ne i8 %14, 0
  br i1 %15, label %16, label %22

16:                                               ; preds = %8
  %17 = load ptr, ptr %4, align 8
  %18 = load ptr, ptr %17, align 8
  %19 = getelementptr inbounds %struct.JNINativeInterface_, ptr %18, i32 0, i32 17
  %20 = load ptr, ptr %19, align 8
  %21 = load ptr, ptr %4, align 8
  call void %20(ptr noundef %21)
  br label %22

22:                                               ; preds = %16, %8
  %23 = load ptr, ptr %4, align 8
  %24 = load ptr, ptr %23, align 8
  %25 = getelementptr inbounds %struct.JNINativeInterface_, ptr %24, i32 0, i32 141
  %26 = load ptr, ptr %25, align 8
  %27 = load ptr, ptr %4, align 8
  %28 = load ptr, ptr @tkClass, align 8
  %29 = load ptr, ptr @awtLockMID, align 8
  call void (ptr, ptr, ptr, ...) %26(ptr noundef %27, ptr noundef %28, ptr noundef %29)
  %30 = load ptr, ptr %4, align 8
  %31 = load ptr, ptr %30, align 8
  %32 = getelementptr inbounds %struct.JNINativeInterface_, ptr %31, i32 0, i32 228
  %33 = load ptr, ptr %32, align 8
  %34 = load ptr, ptr %4, align 8
  %35 = call zeroext i8 %33(ptr noundef %34)
  %36 = icmp ne i8 %35, 0
  br i1 %36, label %37, label %43

37:                                               ; preds = %22
  %38 = load ptr, ptr %4, align 8
  %39 = load ptr, ptr %38, align 8
  %40 = getelementptr inbounds %struct.JNINativeInterface_, ptr %39, i32 0, i32 17
  %41 = load ptr, ptr %40, align 8
  %42 = load ptr, ptr %4, align 8
  call void %41(ptr noundef %42)
  br label %43

43:                                               ; preds = %37, %22
  br label %44

44:                                               ; preds = %43
  %45 = load ptr, ptr @awt_display, align 8
  %46 = load ptr, ptr @awt_display, align 8
  %47 = load i32, ptr %6, align 4
  %48 = call i64 @awt_getX11KeySym(i32 noundef %47)
  %49 = call zeroext i8 @XKeysymToKeycode(ptr noundef %46, i64 noundef %48)
  %50 = zext i8 %49 to i32
  %51 = call i32 @XTestFakeKeyEvent(ptr noundef %45, i32 noundef %50, i32 noundef 1, i64 noundef 0)
  %52 = load ptr, ptr @awt_display, align 8
  %53 = call i32 @XSync(ptr noundef %52, i32 noundef 0)
  br label %54

54:                                               ; preds = %44
  call void (...) @awt_output_flush()
  br label %55

55:                                               ; preds = %54
  %56 = load ptr, ptr %4, align 8
  %57 = load ptr, ptr %56, align 8
  %58 = getelementptr inbounds %struct.JNINativeInterface_, ptr %57, i32 0, i32 15
  %59 = load ptr, ptr %58, align 8
  %60 = load ptr, ptr %4, align 8
  %61 = call ptr %59(ptr noundef %60)
  store ptr %61, ptr %7, align 8
  %62 = icmp ne ptr %61, null
  br i1 %62, label %63, label %69

63:                                               ; preds = %55
  %64 = load ptr, ptr %4, align 8
  %65 = load ptr, ptr %64, align 8
  %66 = getelementptr inbounds %struct.JNINativeInterface_, ptr %65, i32 0, i32 17
  %67 = load ptr, ptr %66, align 8
  %68 = load ptr, ptr %4, align 8
  call void %67(ptr noundef %68)
  br label %69

69:                                               ; preds = %63, %55
  %70 = load ptr, ptr %4, align 8
  %71 = load ptr, ptr %70, align 8
  %72 = getelementptr inbounds %struct.JNINativeInterface_, ptr %71, i32 0, i32 141
  %73 = load ptr, ptr %72, align 8
  %74 = load ptr, ptr %4, align 8
  %75 = load ptr, ptr @tkClass, align 8
  %76 = load ptr, ptr @awtUnlockMID, align 8
  call void (ptr, ptr, ptr, ...) %73(ptr noundef %74, ptr noundef %75, ptr noundef %76)
  %77 = load ptr, ptr %4, align 8
  %78 = load ptr, ptr %77, align 8
  %79 = getelementptr inbounds %struct.JNINativeInterface_, ptr %78, i32 0, i32 228
  %80 = load ptr, ptr %79, align 8
  %81 = load ptr, ptr %4, align 8
  %82 = call zeroext i8 %80(ptr noundef %81)
  %83 = icmp ne i8 %82, 0
  br i1 %83, label %84, label %90

84:                                               ; preds = %69
  %85 = load ptr, ptr %4, align 8
  %86 = load ptr, ptr %85, align 8
  %87 = getelementptr inbounds %struct.JNINativeInterface_, ptr %86, i32 0, i32 17
  %88 = load ptr, ptr %87, align 8
  %89 = load ptr, ptr %4, align 8
  call void %88(ptr noundef %89)
  br label %90

90:                                               ; preds = %84, %69
  %91 = load ptr, ptr %7, align 8
  %92 = icmp ne ptr %91, null
  br i1 %92, label %93, label %101

93:                                               ; preds = %90
  %94 = load ptr, ptr %4, align 8
  %95 = load ptr, ptr %94, align 8
  %96 = getelementptr inbounds %struct.JNINativeInterface_, ptr %95, i32 0, i32 13
  %97 = load ptr, ptr %96, align 8
  %98 = load ptr, ptr %4, align 8
  %99 = load ptr, ptr %7, align 8
  %100 = call i32 %97(ptr noundef %98, ptr noundef %99)
  br label %101

101:                                              ; preds = %93, %90
  br label %102

102:                                              ; preds = %101
  br label %103

103:                                              ; preds = %102
  ret void
}