; Function Attrs: nounwind uwtable
define void @Java_sun_awt_X11_XRobotPeer_keyPressImpl(ptr noundef %0, ptr nocapture noundef readnone %1, i32 noundef %2) local_unnamed_addr #0 {
  %4 = load ptr, ptr %0, align 8
  %5 = getelementptr inbounds i8, ptr %4, i64 1824
  %6 = load ptr, ptr %5, align 8
  %7 = tail call zeroext i8 %6(ptr noundef nonnull %0) #8
  %.not = icmp eq i8 %7, 0
  br i1 %.not, label %12, label %8

8:                                                ; preds = %3
  %9 = load ptr, ptr %0, align 8
  %10 = getelementptr inbounds i8, ptr %9, i64 136
  %11 = load ptr, ptr %10, align 8
  tail call void %11(ptr noundef nonnull %0) #8
  br label %12

12:                                               ; preds = %8, %3
  %13 = load ptr, ptr %0, align 8
  %14 = getelementptr inbounds i8, ptr %13, i64 1128
  %15 = load ptr, ptr %14, align 8
  %16 = load ptr, ptr @tkClass, align 8
  %17 = load ptr, ptr @awtLockMID, align 8
  tail call void (ptr, ptr, ptr, ...) %15(ptr noundef nonnull %0, ptr noundef %16, ptr noundef %17) #8
  %18 = load ptr, ptr %0, align 8
  %19 = getelementptr inbounds i8, ptr %18, i64 1824
  %20 = load ptr, ptr %19, align 8
  %21 = tail call zeroext i8 %20(ptr noundef nonnull %0) #8
  %.not24 = icmp eq i8 %21, 0
  br i1 %.not24, label %26, label %22

22:                                               ; preds = %12
  %23 = load ptr, ptr %0, align 8
  %24 = getelementptr inbounds i8, ptr %23, i64 136
  %25 = load ptr, ptr %24, align 8
  tail call void %25(ptr noundef nonnull %0) #8
  br label %26

26:                                               ; preds = %12, %22
  %27 = load ptr, ptr @awt_display, align 8
  %28 = tail call i64 @awt_getX11KeySym(i32 noundef %2) #8
  %29 = tail call zeroext i8 @XKeysymToKeycode(ptr noundef %27, i64 noundef %28) #8
  %30 = zext i8 %29 to i32
  %31 = tail call i32 @XTestFakeKeyEvent(ptr noundef %27, i32 noundef %30, i32 noundef 1, i64 noundef 0) #8
  %32 = load ptr, ptr @awt_display, align 8
  %33 = tail call i32 @XSync(ptr noundef %32, i32 noundef 0) #8
  tail call void (...) @awt_output_flush() #8
  %34 = load ptr, ptr %0, align 8
  %35 = getelementptr inbounds i8, ptr %34, i64 120
  %36 = load ptr, ptr %35, align 8
  %37 = tail call ptr %36(ptr noundef nonnull %0) #8
  %.not25 = icmp eq ptr %37, null
  br i1 %.not25, label %42, label %38

38:                                               ; preds = %26
  %39 = load ptr, ptr %0, align 8
  %40 = getelementptr inbounds i8, ptr %39, i64 136
  %41 = load ptr, ptr %40, align 8
  tail call void %41(ptr noundef nonnull %0) #8
  br label %42

42:                                               ; preds = %38, %26
  %43 = load ptr, ptr %0, align 8
  %44 = getelementptr inbounds i8, ptr %43, i64 1128
  %45 = load ptr, ptr %44, align 8
  %46 = load ptr, ptr @tkClass, align 8
  %47 = load ptr, ptr @awtUnlockMID, align 8
  tail call void (ptr, ptr, ptr, ...) %45(ptr noundef nonnull %0, ptr noundef %46, ptr noundef %47) #8
  %48 = load ptr, ptr %0, align 8
  %49 = getelementptr inbounds i8, ptr %48, i64 1824
  %50 = load ptr, ptr %49, align 8
  %51 = tail call zeroext i8 %50(ptr noundef nonnull %0) #8
  %.not26 = icmp eq i8 %51, 0
  br i1 %.not26, label %56, label %52

52:                                               ; preds = %42
  %53 = load ptr, ptr %0, align 8
  %54 = getelementptr inbounds i8, ptr %53, i64 136
  %55 = load ptr, ptr %54, align 8
  tail call void %55(ptr noundef nonnull %0) #8
  br label %56

56:                                               ; preds = %52, %42
  br i1 %.not25, label %62, label %57

57:                                               ; preds = %56
  %58 = load ptr, ptr %0, align 8
  %59 = getelementptr inbounds i8, ptr %58, i64 104
  %60 = load ptr, ptr %59, align 8
  %61 = tail call i32 %60(ptr noundef nonnull %0, ptr noundef nonnull %37) #8
  br label %62

62:                                               ; preds = %57, %56
  ret void
}